; Function Attrs: mustprogress noinline uwtable
define hidden noundef ptr @_ZN6google8protobuf5Arena18CreateMaybeMessageIN11opencv_onnx10ModelProtoEJEEEPT_PS1_DpOT0_(ptr noundef %0) local_unnamed_addr #17 align 2 personality ptr @__gxx_personality_v0 {
  %2 = icmp eq ptr %0, null
  br i1 %2, label %_ZN6google8protobuf5Arena14InternalHelperIN11opencv_onnx10ModelProtoEE3NewEv.exit, label %6

_ZN6google8protobuf5Arena14InternalHelperIN11opencv_onnx10ModelProtoEE3NewEv.exit: ; preds = %1
  %3 = tail call noalias noundef nonnull dereferenceable(128) ptr @_Znwm(i64 noundef 128) #24
  %4 = getelementptr inbounds nuw i8, ptr %3, i64 8
  store i64 0, ptr %4, align 8, !tbaa !33
  store ptr getelementptr inbounds nuw inrange(-16, 152) (i8, ptr @_ZTVN11opencv_onnx10ModelProtoE, i64 16), ptr %3, align 8, !tbaa !34
  %.ptr.i = getelementptr inbounds nuw i8, ptr %3, i64 16
  %5 = getelementptr inbounds nuw i8, ptr %3, i64 72
  tail call void @llvm.memset.p0.i64(ptr noundef nonnull align 4 dereferenceable(56) %.ptr.i, i8 0, i64 56, i1 false)
  store ptr @_ZN6google8protobuf8internal26fixed_address_empty_stringB5cxx11E, ptr %5, align 8, !tbaa !41
  br label %_ZN6google8protobuf5Arena21CreateMessageInternalIN11opencv_onnx10ModelProtoEEEPT_PS1_.exit

6:                                                ; preds = %1
  %7 = tail call noundef ptr @_ZN6google8protobuf5Arena23AllocateAlignedWithHookEmPKSt9type_info(ptr noundef nonnull align 8 dereferenceable(32) %0, i64 noundef 128, ptr noundef nonnull @_ZTIN11opencv_onnx10ModelProtoE)
  %8 = getelementptr inbounds nuw i8, ptr %7, i64 8
  %9 = ptrtoint ptr %0 to i64
  store i64 %9, ptr %8, align 8, !tbaa !33
  store ptr getelementptr inbounds nuw inrange(-16, 152) (i8, ptr @_ZTVN11opencv_onnx10ModelProtoE, i64 16), ptr %7, align 8, !tbaa !34
  %.ptr.i.i = getelementptr inbounds nuw i8, ptr %7, i64 16
  store i32 0, ptr %.ptr.i.i, align 4, !tbaa !51
  %10 = getelementptr inbounds nuw i8, ptr %7, i64 20
  store i32 0, ptr %10, align 4, !tbaa !145
  %11 = getelementptr inbounds nuw i8, ptr %7, i64 24
  store ptr %0, ptr %11, align 8, !tbaa !40
  %12 = getelementptr inbounds nuw i8, ptr %7, i64 32
  tail call void @llvm.memset.p0.i64(ptr noundef nonnull align 8 dereferenceable(16) %12, i8 0, i64 16, i1 false)
  %13 = getelementptr inbounds nuw i8, ptr %7, i64 48
  store ptr %0, ptr %13, align 8, !tbaa !40
  %14 = getelementptr inbounds nuw i8, ptr %7, i64 56
  tail call void @llvm.memset.p0.i64(ptr noundef nonnull align 8 dereferenceable(16) %14, i8 0, i64 16, i1 false)
  %15 = getelementptr inbounds nuw i8, ptr %7, i64 72
  store ptr @_ZN6google8protobuf8internal26fixed_address_empty_stringB5cxx11E, ptr %15, align 8, !tbaa !41
  br label %_ZN6google8protobuf5Arena21CreateMessageInternalIN11opencv_onnx10ModelProtoEEEPT_PS1_.exit

_ZN6google8protobuf5Arena21CreateMessageInternalIN11opencv_onnx10ModelProtoEEEPT_PS1_.exit: ; preds = %_ZN6google8protobuf5Arena14InternalHelperIN11opencv_onnx10ModelProtoEE3NewEv.exit, %6
  %.sink5 = phi ptr [ %3, %_ZN6google8protobuf5Arena14InternalHelperIN11opencv_onnx10ModelProtoEE3NewEv.exit ], [ %7, %6 ]
  %16 = getelementptr inbounds nuw i8, ptr %.sink5, i64 80
  store ptr @_ZN6google8protobuf8internal26fixed_address_empty_stringB5cxx11E, ptr %16, align 8, !tbaa !41
  %17 = getelementptr inbounds nuw i8, ptr %.sink5, i64 88
  store ptr @_ZN6google8protobuf8internal26fixed_address_empty_stringB5cxx11E, ptr %17, align 8, !tbaa !41
  %18 = getelementptr inbounds nuw i8, ptr %.sink5, i64 96
  store ptr @_ZN6google8protobuf8internal26fixed_address_empty_stringB5cxx11E, ptr %18, align 8, !tbaa !41
  %19 = getelementptr inbounds nuw i8, ptr %.sink5, i64 104
  tail call void @llvm.memset.p0.i64(ptr noundef nonnull align 8 dereferenceable(24) %19, i8 0, i64 24, i1 false)
  ret ptr %.sink5
}